target datalayout = "e-m:e-p270:32:32-p271:32:32-p272:64:64-i64:64-i128:128-f80:128-n8:16:32:64-S128"
target triple = "x86_64-pc-linux-gnu"

@smpp_handle = internal global ptr null, align 8

; Function Attrs: null_pointer_is_valid sspstrong uwtable
define internal zeroext i1 @dissect_smpp_heur(ptr noundef %0, ptr noundef %1, ptr noundef %2, ptr noundef %3) #0 {
  %5 = alloca i1, align 1
  %6 = alloca ptr, align 8
  %7 = alloca ptr, align 8
  %8 = alloca ptr, align 8
  %9 = alloca ptr, align 8
  %10 = alloca i32, align 4
  %11 = alloca ptr, align 8
  %12 = alloca i32, align 4
  %13 = alloca i8, align 1
  %14 = alloca i8, align 1
  %15 = alloca i32, align 4
  store ptr %0, ptr %6, align 8
  store ptr %1, ptr %7, align 8
  store ptr %2, ptr %8, align 8
  store ptr %3, ptr %9, align 8
  call void @llvm.lifetime.start.p0(i64 4, ptr %10) #10
  call void @llvm.lifetime.start.p0(i64 8, ptr %11) #10
  %16 = load ptr, ptr %7, align 8
  %17 = load ptr, ptr %6, align 8
  %18 = load ptr, ptr %9, align 8
  %19 = call zeroext i1 @test_smpp(ptr noundef %16, ptr noundef %17, i32 noundef 0, ptr noundef %18)
  br i1 %19, label %21, label %20

20:                                               ; preds = %4
  store i1 false, ptr %5, align 1
  store i32 1, ptr %12, align 4
  br label %76

21:                                               ; preds = %4
  %22 = load ptr, ptr %6, align 8
  %23 = call i32 @tvb_get_ntohl(ptr noundef %22, i32 noundef 4)
  store i32 %23, ptr %10, align 4
  %24 = load i32, ptr %10, align 4
  switch i32 %24, label %66 [
    i32 258, label %25
  ]

25:                                               ; preds = %21
  call void @llvm.lifetime.start.p0(i64 1, ptr %13) #10
  call void @llvm.lifetime.start.p0(i64 1, ptr %14) #10
  %26 = load ptr, ptr %6, align 8
  %27 = call i32 @tvb_reported_length(ptr noundef %26)
  %28 = icmp ult i32 %27, 19
  br i1 %28, label %29, label %30

29:                                               ; preds = %25
  store i1 false, ptr %5, align 1
  store i32 1, ptr %12, align 4
  br label %63

30:                                               ; preds = %25
  %31 = load ptr, ptr %6, align 8
  %32 = call zeroext i8 @tvb_get_uint8(ptr noundef %31, i32 noundef 16)
  store i8 %32, ptr %13, align 1
  %33 = load i8, ptr %13, align 1
  %34 = zext i8 %33 to i32
  %35 = call ptr @try_val_to_str(i32 noundef %34, ptr noundef @vals_addr_ton)
  %36 = icmp eq ptr %35, null
  br i1 %36, label %37, label %38

37:                                               ; preds = %30
  store i1 false, ptr %5, align 1
  store i32 1, ptr %12, align 4
  br label %63

38:                                               ; preds = %30
  %39 = load ptr, ptr %6, align 8
  %40 = call zeroext i8 @tvb_get_uint8(ptr noundef %39, i32 noundef 17)
  store i8 %40, ptr %14, align 1
  %41 = load i8, ptr %14, align 1
  %42 = zext i8 %41 to i32
  %43 = call ptr @try_val_to_str(i32 noundef %42, ptr noundef @vals_addr_npi)
  %44 = icmp eq ptr %43, null
  br i1 %44, label %45, label %46

45:                                               ; preds = %38
  store i1 false, ptr %5, align 1
  store i32 1, ptr %12, align 4
  br label %63

46:                                               ; preds = %38
  call void @llvm.lifetime.start.p0(i64 4, ptr %15) #10
  %47 = load ptr, ptr %6, align 8
  %48 = call i32 @tvb_find_uint8(ptr noundef %47, i32 noundef 18, i32 noundef -1, i8 noundef zeroext 0)
  store i32 %48, ptr %15, align 4
  %49 = load i32, ptr %15, align 4
  %50 = icmp sle i32 %49, 0
  br i1 %50, label %54, label %51

51:                                               ; preds = %46
  %52 = load i32, ptr %15, align 4
  %53 = icmp sgt i32 %52, 65
  br i1 %53, label %54, label %55

54:                                               ; preds = %51, %46
  store i1 false, ptr %5, align 1
  store i32 1, ptr %12, align 4
  br label %62

55:                                               ; preds = %51
  %56 = load ptr, ptr %6, align 8
  %57 = load i32, ptr %15, align 4
  %58 = sub i32 %57, 18
  %59 = call zeroext i1 @tvb_ascii_isprint(ptr noundef %56, i32 noundef 18, i32 noundef %58)
  br i1 %59, label %61, label %60

60:                                               ; preds = %55
  store i1 false, ptr %5, align 1
  store i32 1, ptr %12, align 4
  br label %62

61:                                               ; preds = %55
  store i32 0, ptr %12, align 4
  br label %62

62:                                               ; preds = %61, %60, %54
  call void @llvm.lifetime.end.p0(i64 4, ptr %15) #10
  br label %63

63:                                               ; preds = %62, %45, %37, %29
  call void @llvm.lifetime.end.p0(i64 1, ptr %14) #10
  call void @llvm.lifetime.end.p0(i64 1, ptr %13) #10
  %64 = load i32, ptr %12, align 4
  switch i32 %64, label %76 [
    i32 0, label %65
  ]

65:                                               ; preds = %63
  br label %66

66:                                               ; preds = %21, %65
  %67 = load ptr, ptr %7, align 8
  %68 = call ptr @find_or_create_conversation(ptr noundef %67)
  store ptr %68, ptr %11, align 8
  %69 = load ptr, ptr %11, align 8
  %70 = load ptr, ptr @smpp_handle, align 8
  call void @conversation_set_dissector(ptr noundef %69, ptr noundef %70)
  %71 = load ptr, ptr %6, align 8
  %72 = load ptr, ptr %7, align 8
  %73 = load ptr, ptr %8, align 8
  %74 = load ptr, ptr %9, align 8
  %75 = call i32 @dissect_smpp(ptr noundef %71, ptr noundef %72, ptr noundef %73, ptr noundef %74)
  store i1 true, ptr %5, align 1
  store i32 1, ptr %12, align 4
  br label %76

76:                                               ; preds = %66, %63, %20
  call void @llvm.lifetime.end.p0(i64 8, ptr %11) #10
  call void @llvm.lifetime.end.p0(i64 4, ptr %10) #10
  %77 = load i1, ptr %5, align 1
  ret i1 %77
}