; Function Attrs: null_pointer_is_valid sspstrong uwtable
define internal noundef zeroext i1 @dissect_smpp_heur(ptr noundef %0, ptr noundef %1, ptr noundef %2, ptr noundef %3) #0 {
  %5 = tail call fastcc zeroext i1 @test_smpp(ptr noundef %0)
  br i1 %5, label %6, label %.critedge

6:                                                ; preds = %4
  %7 = tail call i32 @tvb_get_ntohl(ptr noundef %0, i32 noundef 4)
  %cond = icmp eq i32 %7, 258
  br i1 %cond, label %8, label %27

8:                                                ; preds = %6
  %9 = tail call i32 @tvb_reported_length(ptr noundef %0)
  %10 = icmp ult i32 %9, 19
  br i1 %10, label %.critedge, label %11

11:                                               ; preds = %8
  %12 = tail call zeroext i8 @tvb_get_uint8(ptr noundef %0, i32 noundef 16)
  %13 = zext i8 %12 to i32
  %14 = tail call ptr @try_val_to_str(i32 noundef %13, ptr noundef nonnull @vals_addr_ton)
  %15 = icmp eq ptr %14, null
  br i1 %15, label %.critedge, label %16

16:                                               ; preds = %11
  %17 = tail call zeroext i8 @tvb_get_uint8(ptr noundef %0, i32 noundef 17)
  %18 = zext i8 %17 to i32
  %19 = tail call ptr @try_val_to_str(i32 noundef %18, ptr noundef nonnull @vals_addr_npi)
  %20 = icmp eq ptr %19, null
  br i1 %20, label %.critedge, label %21

21:                                               ; preds = %16
  %22 = tail call i32 @tvb_find_uint8(ptr noundef %0, i32 noundef 18, i32 noundef -1, i8 noundef zeroext 0)
  %23 = add i32 %22, -66
  %or.cond = icmp ult i32 %23, -65
  br i1 %or.cond, label %.critedge, label %24

24:                                               ; preds = %21
  %25 = add nsw i32 %22, -18
  %26 = tail call zeroext i1 @tvb_ascii_isprint(ptr noundef %0, i32 noundef 18, i32 noundef %25)
  br i1 %26, label %27, label %.critedge

27:                                               ; preds = %24, %6
  %28 = tail call ptr @find_or_create_conversation(ptr noundef %1)
  %29 = load ptr, ptr @smpp_handle, align 8
  tail call void @conversation_set_dissector(ptr noundef %28, ptr noundef %29)
  %30 = tail call i32 @dissect_smpp(ptr noundef %0, ptr noundef %1, ptr noundef %2, ptr noundef %3)
  br label %.critedge

.critedge:                                        ; preds = %8, %11, %16, %21, %4, %24, %27
  %.0 = phi i1 [ true, %27 ], [ false, %24 ], [ false, %4 ], [ false, %21 ], [ false, %16 ], [ false, %11 ], [ false, %8 ]
  ret i1 %.0
}